; Function Attrs: mustprogress nofree norecurse nosync nounwind willreturn memory(read, inaccessiblemem: none) uwtable
define dso_local noundef ptr @_ZN5clang11DeclContext28getOuterLexicalRecordContextEv(ptr noundef nonnull readonly align 8 dereferenceable(32) %0) local_unnamed_addr #1 align 2 {
  %2 = getelementptr inbounds nuw i8, ptr %0, i64 8
  %3 = load i16, ptr %2, align 8
  %4 = and i16 %3, 127
  %5 = add nsw i16 %4, -55
  %spec.select.i6 = icmp ult i16 %5, 4
  br i1 %spec.select.i6, label %.lr.ph, label %20

.lr.ph:                                           ; preds = %1, %_ZN5clang11DeclContext16getLexicalParentEv.exit
  %.07 = phi ptr [ %.0.i.i, %_ZN5clang11DeclContext16getLexicalParentEv.exit ], [ %0, %1 ]
  %6 = tail call noundef ptr @_ZN5clang4Decl19castFromDeclContextEPKNS_11DeclContextE(ptr noundef nonnull %.07)
  %7 = getelementptr inbounds nuw i8, ptr %6, i64 16
  %.0.copyload.i.i.i.i.i.i.i.i.i.i.i = load i64, ptr %7, align 8
  %8 = and i64 %.0.copyload.i.i.i.i.i.i.i.i.i.i.i, 4
  %9 = icmp eq i64 %8, 0
  %10 = and i64 %.0.copyload.i.i.i.i.i.i.i.i.i.i.i, -8
  %11 = inttoptr i64 %10 to ptr
  br i1 %9, label %_ZN5clang11DeclContext16getLexicalParentEv.exit, label %12

12:                                               ; preds = %.lr.ph
  %13 = getelementptr inbounds nuw i8, ptr %11, i64 8
  %14 = load ptr, ptr %13, align 8
  br label %_ZN5clang11DeclContext16getLexicalParentEv.exit

_ZN5clang11DeclContext16getLexicalParentEv.exit:  ; preds = %.lr.ph, %12
  %.0.i.i = phi ptr [ %14, %12 ], [ %11, %.lr.ph ]
  %15 = getelementptr inbounds nuw i8, ptr %.0.i.i, i64 8
  %16 = load i16, ptr %15, align 8
  %17 = and i16 %16, 127
  %18 = add nsw i16 %17, -55
  %spec.select.i = icmp ult i16 %18, 4
  br i1 %spec.select.i, label %.lr.ph, label %._crit_edge, !llvm.loop !63

._crit_edge:                                      ; preds = %_ZN5clang11DeclContext16getLexicalParentEv.exit
  %19 = getelementptr inbounds i8, ptr %.07, i64 -64
  br label %20

20:                                               ; preds = %._crit_edge, %1
  %.05.lcssa = phi ptr [ %19, %._crit_edge ], [ null, %1 ]
  ret ptr %.05.lcssa
}